; Function Attrs: mustprogress nounwind uwtable
define dso_local void @_ZN11IntResourceD0Ev(ptr noundef nonnull align 8 dereferenceable(60) initializes((0, 8)) %0) unnamed_addr #3 align 2 personality ptr @__gxx_personality_v0 {
  store ptr getelementptr inbounds nuw inrange(-16, 64) (i8, ptr @_ZTV9SResource, i64 16), ptr %0, align 8, !tbaa !9
  %2 = getelementptr inbounds nuw i8, ptr %0, i64 40
  invoke void @ustr_deinit(ptr noundef nonnull %2)
          to label %_ZN9SResourceD2Ev.exit unwind label %3

3:                                                ; preds = %1
  %4 = landingpad { ptr, i32 }
          catch ptr null
  %5 = extractvalue { ptr, i32 } %4, 0
  tail call void @__clang_call_terminate(ptr %5) #31
  unreachable

_ZN9SResourceD2Ev.exit:                           ; preds = %1
  tail call void @_ZdlPvm(ptr noundef nonnull %0, i64 noundef 64) #35
  ret void
}